target datalayout = "e-m:e-p270:32:32-p271:32:32-p272:64:64-i64:64-i128:128-f80:128-n8:16:32:64-S128"
target triple = "x86_64-pc-linux-gnu"

%struct.strvec = type { ptr, i64, i64 }
%struct.strbuf = type { i64, i64, ptr }
%struct.oidset = type { %struct.kh_oid_set }
%struct.kh_oid_set = type { i32, i32, i32, i32, ptr, ptr, ptr }
%struct.rev_info = type { ptr, %struct.object_array, ptr, %struct.object_array, %struct.rev_cmdline_info, %struct.list_objects_filter_options, %struct.ref_exclusions, ptr, ptr, ptr, %struct.pathspec, i32, i32, i32, i32, i64, i32, i32, %struct.date_mode, i32, i32, i32, i32, ptr, i32, i32, ptr, ptr, i32, ptr, ptr, %struct.ident_split, ptr, i32, ptr, ptr, ptr, i32, i32, i32, ptr, %struct.grep_opt, ptr, i32, i32, i64, i64, i64, i32, i32, ptr, ptr, ptr, %struct.diff_options, %struct.diff_options, ptr, %struct.decoration, %struct.decoration, %struct.decoration, %struct.display_notes_opt, ptr, ptr, ptr, ptr, ptr, i32, ptr, i32, i32, i32, %struct.decoration, ptr, ptr, ptr, ptr, ptr, ptr, ptr, i32, ptr, i32, ptr, %struct.oidset }
%struct.object_array = type { i32, i32, ptr }
%struct.rev_cmdline_info = type { i32, i32, ptr }
%struct.list_objects_filter_options = type { %struct.strbuf, i32, i8, ptr, i64, i64, i32, i64, i64, ptr }
%struct.ref_exclusions = type { %struct.string_list, %struct.strvec, i8 }
%struct.string_list = type { ptr, i64, i64, i8, ptr }
%struct.pathspec = type { i32, i8, i32, i32, ptr }
%struct.date_mode = type { i32, i32, ptr }
%struct.ident_split = type { ptr, ptr, ptr, ptr, ptr, ptr, ptr, ptr }
%struct.grep_opt = type { ptr, ptr, ptr, ptr, ptr, ptr, i32, i32, i32, i32, i32, i32, i32, i32, i32, i32, i32, i32, i32, i32, i32, i32, i32, i32, i32, i32, i32, i32, i32, i32, i32, i32, [9 x [75 x i8]], i32, i32, i32, i32, i32, i32, i32, ptr, ptr, ptr }
%struct.diff_options = type { ptr, ptr, i32, i32, ptr, i32, ptr, i64, i64, ptr, ptr, ptr, ptr, %struct.diff_flags, i32, i32, i32, i32, i32, i32, i32, i32, i32, i32, i32, i32, i32, i32, i32, i32, i32, i32, i32, i32, i32, i32, ptr, i32, ptr, i32, i32, ptr, i64, i64, i32, i32, i32, i32, ptr, i32, i32, ptr, i32, i32, ptr, ptr, i32, [3 x i8], %struct.pathspec, ptr, ptr, ptr, ptr, ptr, ptr, ptr, ptr, i32, ptr, i32, i32, ptr, ptr, i32 }
%struct.diff_flags = type { i32, i32, i32, i32, i32, i32, i32, i32, i32, i32, i32, i32, i32, i32, i32, i32, i32, i32, i32, i32, i32, i32, i32, i32, i32, i32, i32, i32, i32, i32, i32, i32, i32, i32, i32 }
%struct.display_notes_opt = type { i32, %struct.string_list }
%struct.decoration = type { ptr, i32, i32, ptr }

@.str.38 = private unnamed_addr constant [14 x i8] c"bad object %s\00", align 1

; Function Attrs: nounwind uwtable
define internal void @add_pending_object_with_mode(ptr noundef %0, ptr noundef %1, ptr noundef %2, i32 noundef %3) #0 {
  %5 = alloca ptr, align 8
  %6 = alloca ptr, align 8
  %7 = alloca ptr, align 8
  %8 = alloca i32, align 4
  store ptr %0, ptr %5, align 8, !tbaa !88
  store ptr %1, ptr %6, align 8, !tbaa !37
  store ptr %2, ptr %7, align 8, !tbaa !39
  store i32 %3, ptr %8, align 4, !tbaa !9
  %9 = load ptr, ptr %5, align 8, !tbaa !88
  %10 = load ptr, ptr %6, align 8, !tbaa !37
  %11 = load ptr, ptr %7, align 8, !tbaa !39
  %12 = load i32, ptr %8, align 4, !tbaa !9
  call void @add_pending_object_with_path(ptr noundef %9, ptr noundef %10, ptr noundef %11, i32 noundef %12, ptr noundef null)
  ret void
}

; Function Attrs: nounwind uwtable
define dso_local void @add_pending_object(ptr noundef %0, ptr noundef %1, ptr noundef %2) #0 {
  %4 = alloca ptr, align 8
  %5 = alloca ptr, align 8
  %6 = alloca ptr, align 8
  store ptr %0, ptr %4, align 8, !tbaa !88
  store ptr %1, ptr %5, align 8, !tbaa !37
  store ptr %2, ptr %6, align 8, !tbaa !39
  %7 = load ptr, ptr %4, align 8, !tbaa !88
  %8 = load ptr, ptr %5, align 8, !tbaa !37
  %9 = load ptr, ptr %6, align 8, !tbaa !39
  call void @add_pending_object_with_mode(ptr noundef %7, ptr noundef %8, ptr noundef %9, i32 noundef 12288)
  ret void
}

; Function Attrs: nounwind uwtable
define internal ptr @get_reference(ptr noundef %0, ptr noundef %1, ptr noundef %2, i32 noundef %3) #0 {
  %5 = alloca ptr, align 8
  %6 = alloca ptr, align 8
  %7 = alloca ptr, align 8
  %8 = alloca ptr, align 8
  %9 = alloca i32, align 4
  %10 = alloca ptr, align 8
  %11 = alloca i32, align 4
  store ptr %0, ptr %6, align 8, !tbaa !88
  store ptr %1, ptr %7, align 8, !tbaa !39
  store ptr %2, ptr %8, align 8, !tbaa !54
  store i32 %3, ptr %9, align 4, !tbaa !9
  call void @llvm.lifetime.start.p0(i64 8, ptr %10) #12
  %12 = load ptr, ptr %6, align 8, !tbaa !88
  %13 = getelementptr inbounds nuw %struct.rev_info, ptr %12, i32 0, i32 2
  %14 = load ptr, ptr %13, align 8, !tbaa !105
  %15 = load ptr, ptr %8, align 8, !tbaa !54
  %16 = load ptr, ptr %6, align 8, !tbaa !88
  %17 = getelementptr inbounds nuw %struct.rev_info, ptr %16, i32 0, i32 15
  %18 = load i64, ptr %17, align 8
  %19 = lshr i64 %18, 16
  %20 = and i64 %19, 1
  %21 = trunc i64 %20 to i32
  %22 = icmp ne i32 %21, 0
  %23 = select i1 %22, i32 0, i32 3
  %24 = call ptr @parse_object_with_flags(ptr noundef %14, ptr noundef %15, i32 noundef %23)
  store ptr %24, ptr %10, align 8, !tbaa !37
  %25 = load ptr, ptr %10, align 8, !tbaa !37
  %26 = icmp ne ptr %25, null
  br i1 %26, label %66, label %27

27:                                               ; preds = %4
  %28 = load ptr, ptr %6, align 8, !tbaa !88
  %29 = getelementptr inbounds nuw %struct.rev_info, ptr %28, i32 0, i32 15
  %30 = load i64, ptr %29, align 8
  %31 = and i64 %30, 1
  %32 = trunc i64 %31 to i32
  %33 = icmp ne i32 %32, 0
  br i1 %33, label %34, label %35

34:                                               ; preds = %27
  store ptr null, ptr %5, align 8
  store i32 1, ptr %11, align 4
  br label %78

35:                                               ; preds = %27
  %36 = load ptr, ptr %6, align 8, !tbaa !88
  %37 = getelementptr inbounds nuw %struct.rev_info, ptr %36, i32 0, i32 15
  %38 = load i64, ptr %37, align 8
  %39 = lshr i64 %38, 43
  %40 = and i64 %39, 1
  %41 = trunc i64 %40 to i32
  %42 = icmp ne i32 %41, 0
  br i1 %42, label %43, label %51

43:                                               ; preds = %35
  %44 = load ptr, ptr %6, align 8, !tbaa !88
  %45 = getelementptr inbounds nuw %struct.rev_info, ptr %44, i32 0, i32 2
  %46 = load ptr, ptr %45, align 8, !tbaa !105
  %47 = load ptr, ptr %8, align 8, !tbaa !54
  %48 = call i32 @is_promisor_object(ptr noundef %46, ptr noundef %47)
  %49 = icmp ne i32 %48, 0
  br i1 %49, label %50, label %51

50:                                               ; preds = %43
  store ptr null, ptr %5, align 8
  store i32 1, ptr %11, align 4
  br label %78

51:                                               ; preds = %43, %35
  %52 = load ptr, ptr %6, align 8, !tbaa !88
  %53 = getelementptr inbounds nuw %struct.rev_info, ptr %52, i32 0, i32 15
  %54 = load i64, ptr %53, align 8
  %55 = lshr i64 %54, 42
  %56 = and i64 %55, 1
  %57 = trunc i64 %56 to i32
  %58 = icmp ne i32 %57, 0
  br i1 %58, label %59, label %64

59:                                               ; preds = %51
  %60 = load ptr, ptr %6, align 8, !tbaa !88
  %61 = getelementptr inbounds nuw %struct.rev_info, ptr %60, i32 0, i32 82
  %62 = load ptr, ptr %8, align 8, !tbaa !54
  %63 = call i32 @oidset_insert(ptr noundef %61, ptr noundef %62)
  store ptr null, ptr %5, align 8
  store i32 1, ptr %11, align 4
  br label %78

64:                                               ; preds = %51
  %65 = load ptr, ptr %7, align 8, !tbaa !39
  call void (ptr, ...) @die(ptr noundef @.str.38, ptr noundef %65) #13
  unreachable

66:                                               ; preds = %4
  %67 = load i32, ptr %9, align 4, !tbaa !9
  %68 = load ptr, ptr %10, align 8, !tbaa !37
  %69 = load i32, ptr %68, align 4
  %70 = lshr i32 %69, 4
  %71 = or i32 %70, %67
  %72 = load i32, ptr %68, align 4
  %73 = and i32 %71, 268435455
  %74 = shl i32 %73, 4
  %75 = and i32 %72, 15
  %76 = or i32 %75, %74
  store i32 %76, ptr %68, align 4
  %77 = load ptr, ptr %10, align 8, !tbaa !37
  store ptr %77, ptr %5, align 8
  store i32 1, ptr %11, align 4
  br label %78

78:                                               ; preds = %66, %59, %50, %34
  call void @llvm.lifetime.end.p0(i64 8, ptr %10) #12
  %79 = load ptr, ptr %5, align 8
  ret ptr %79
}

; Function Attrs: nounwind uwtable
define dso_local void @add_pending_oid(ptr noundef %0, ptr noundef %1, ptr noundef %2, i32 noundef %3) #0 {
  %5 = alloca ptr, align 8
  %6 = alloca ptr, align 8
  %7 = alloca ptr, align 8
  %8 = alloca i32, align 4
  %9 = alloca ptr, align 8
  store ptr %0, ptr %5, align 8, !tbaa !88
  store ptr %1, ptr %6, align 8, !tbaa !39
  store ptr %2, ptr %7, align 8, !tbaa !54
  store i32 %3, ptr %8, align 4, !tbaa !9
  call void @llvm.lifetime.start.p0(i64 8, ptr %9) #12
  %10 = load ptr, ptr %5, align 8, !tbaa !88
  %11 = load ptr, ptr %6, align 8, !tbaa !39
  %12 = load ptr, ptr %7, align 8, !tbaa !54
  %13 = load i32, ptr %8, align 4, !tbaa !9
  %14 = call ptr @get_reference(ptr noundef %10, ptr noundef %11, ptr noundef %12, i32 noundef %13)
  store ptr %14, ptr %9, align 8, !tbaa !37
  %15 = load ptr, ptr %5, align 8, !tbaa !88
  %16 = load ptr, ptr %9, align 8, !tbaa !37
  %17 = load ptr, ptr %6, align 8, !tbaa !39
  call void @add_pending_object(ptr noundef %15, ptr noundef %16, ptr noundef %17)
  call void @llvm.lifetime.end.p0(i64 8, ptr %9) #12
  ret void
}